target datalayout = "e-m:e-p270:32:32-p271:32:32-p272:64:64-i64:64-i128:128-f80:128-n8:16:32:64-S128"
target triple = "x86_64-pc-linux-gnu"

%struct.Vec_Int_t_ = type { i32, i32, ptr }

; Function Attrs: inlinehint nounwind uwtable
define internal void @Vec_IntShrink(ptr noundef %0, i32 noundef %1) #1 {
  %3 = alloca ptr, align 8
  %4 = alloca i32, align 4
  store ptr %0, ptr %3, align 8, !tbaa !35
  store i32 %1, ptr %4, align 4, !tbaa !8
  %5 = load i32, ptr %4, align 4, !tbaa !8
  %6 = load ptr, ptr %3, align 8, !tbaa !35
  %7 = getelementptr inbounds nuw %struct.Vec_Int_t_, ptr %6, i32 0, i32 1
  store i32 %5, ptr %7, align 4, !tbaa !38
  ret void
}

; Function Attrs: inlinehint nounwind uwtable
define internal i32 @Vec_IntEntryLast(ptr noundef %0) #1 {
  %2 = alloca ptr, align 8
  store ptr %0, ptr %2, align 8, !tbaa !35
  %3 = load ptr, ptr %2, align 8, !tbaa !35
  %4 = getelementptr inbounds nuw %struct.Vec_Int_t_, ptr %3, i32 0, i32 2
  %5 = load ptr, ptr %4, align 8, !tbaa !36
  %6 = load ptr, ptr %2, align 8, !tbaa !35
  %7 = getelementptr inbounds nuw %struct.Vec_Int_t_, ptr %6, i32 0, i32 1
  %8 = load i32, ptr %7, align 4, !tbaa !38
  %9 = sub nsw i32 %8, 1
  %10 = sext i32 %9 to i64
  %11 = getelementptr inbounds i32, ptr %5, i64 %10
  %12 = load i32, ptr %11, align 4, !tbaa !8
  ret i32 %12
}

; Function Attrs: inlinehint nounwind uwtable
define internal void @Vec_IntWriteEntry(ptr noundef %0, i32 noundef %1, i32 noundef %2) #1 {
  %4 = alloca ptr, align 8
  %5 = alloca i32, align 4
  %6 = alloca i32, align 4
  store ptr %0, ptr %4, align 8, !tbaa !35
  store i32 %1, ptr %5, align 4, !tbaa !8
  store i32 %2, ptr %6, align 4, !tbaa !8
  %7 = load i32, ptr %6, align 4, !tbaa !8
  %8 = load ptr, ptr %4, align 8, !tbaa !35
  %9 = getelementptr inbounds nuw %struct.Vec_Int_t_, ptr %8, i32 0, i32 2
  %10 = load ptr, ptr %9, align 8, !tbaa !36
  %11 = load i32, ptr %5, align 4, !tbaa !8
  %12 = sext i32 %11 to i64
  %13 = getelementptr inbounds i32, ptr %10, i64 %12
  store i32 %7, ptr %13, align 4, !tbaa !8
  ret void
}

; Function Attrs: inlinehint nounwind uwtable
define internal i32 @Vec_IntEntry(ptr noundef %0, i32 noundef %1) #1 {
  %3 = alloca ptr, align 8
  %4 = alloca i32, align 4
  store ptr %0, ptr %3, align 8, !tbaa !35
  store i32 %1, ptr %4, align 4, !tbaa !8
  %5 = load ptr, ptr %3, align 8, !tbaa !35
  %6 = getelementptr inbounds nuw %struct.Vec_Int_t_, ptr %5, i32 0, i32 2
  %7 = load ptr, ptr %6, align 8, !tbaa !36
  %8 = load i32, ptr %4, align 4, !tbaa !8
  %9 = sext i32 %8 to i64
  %10 = getelementptr inbounds i32, ptr %7, i64 %9
  %11 = load i32, ptr %10, align 4, !tbaa !8
  ret i32 %11
}

; Function Attrs: inlinehint nounwind uwtable
define internal i32 @Vec_IntSize(ptr noundef %0) #1 {
  %2 = alloca ptr, align 8
  store ptr %0, ptr %2, align 8, !tbaa !35
  %3 = load ptr, ptr %2, align 8, !tbaa !35
  %4 = getelementptr inbounds nuw %struct.Vec_Int_t_, ptr %3, i32 0, i32 1
  %5 = load i32, ptr %4, align 4, !tbaa !38
  ret i32 %5
}

; Function Attrs: nounwind uwtable
define i32 @Gia_ManHashAndMulti(ptr noundef %0, ptr noundef %1) #0 {
  %3 = alloca i32, align 4
  %4 = alloca ptr, align 8
  %5 = alloca ptr, align 8
  %6 = alloca i32, align 4
  %7 = alloca i32, align 4
  %8 = alloca i32, align 4
  %9 = alloca i32, align 4
  %10 = alloca i32, align 4
  store ptr %0, ptr %4, align 8, !tbaa !3
  store ptr %1, ptr %5, align 8, !tbaa !35
  %11 = load ptr, ptr %5, align 8, !tbaa !35
  %12 = call i32 @Vec_IntSize(ptr noundef %11)
  %13 = icmp eq i32 %12, 0
  br i1 %13, label %14, label %15

14:                                               ; preds = %2
  store i32 0, ptr %3, align 4
  br label %67

15:                                               ; preds = %2
  br label %16

16:                                               ; preds = %61, %15
  %17 = load ptr, ptr %5, align 8, !tbaa !35
  %18 = call i32 @Vec_IntSize(ptr noundef %17)
  %19 = icmp sgt i32 %18, 1
  br i1 %19, label %20, label %64

20:                                               ; preds = %16
  call void @llvm.lifetime.start.p0(i64 4, ptr %6) #12
  call void @llvm.lifetime.start.p0(i64 4, ptr %7) #12
  store i32 0, ptr %7, align 4, !tbaa !8
  call void @llvm.lifetime.start.p0(i64 4, ptr %8) #12
  call void @llvm.lifetime.start.p0(i64 4, ptr %9) #12
  call void @llvm.lifetime.start.p0(i64 4, ptr %10) #12
  store i32 0, ptr %6, align 4, !tbaa !8
  br label %21

21:                                               ; preds = %47, %20
  %22 = load i32, ptr %6, align 4, !tbaa !8
  %23 = add nsw i32 %22, 1
  %24 = load ptr, ptr %5, align 8, !tbaa !35
  %25 = call i32 @Vec_IntSize(ptr noundef %24)
  %26 = icmp slt i32 %23, %25
  br i1 %26, label %27, label %36

27:                                               ; preds = %21
  %28 = load ptr, ptr %5, align 8, !tbaa !35
  %29 = load i32, ptr %6, align 4, !tbaa !8
  %30 = call i32 @Vec_IntEntry(ptr noundef %28, i32 noundef %29)
  store i32 %30, ptr %8, align 4, !tbaa !8
  br i1 true, label %31, label %36

31:                                               ; preds = %27
  %32 = load ptr, ptr %5, align 8, !tbaa !35
  %33 = load i32, ptr %6, align 4, !tbaa !8
  %34 = add nsw i32 %33, 1
  %35 = call i32 @Vec_IntEntry(ptr noundef %32, i32 noundef %34)
  store i32 %35, ptr %9, align 4, !tbaa !8
  br label %36

36:                                               ; preds = %31, %27, %21
  %37 = phi i1 [ false, %27 ], [ false, %21 ], [ true, %31 ]
  br i1 %37, label %38, label %50

38:                                               ; preds = %36
  %39 = load ptr, ptr %4, align 8, !tbaa !3
  %40 = load i32, ptr %8, align 4, !tbaa !8
  %41 = load i32, ptr %9, align 4, !tbaa !8
  %42 = call i32 @Gia_ManHashAnd(ptr noundef %39, i32 noundef %40, i32 noundef %41)
  store i32 %42, ptr %10, align 4, !tbaa !8
  %43 = load ptr, ptr %5, align 8, !tbaa !35
  %44 = load i32, ptr %7, align 4, !tbaa !8
  %45 = add nsw i32 %44, 1
  store i32 %45, ptr %7, align 4, !tbaa !8
  %46 = load i32, ptr %10, align 4, !tbaa !8
  call void @Vec_IntWriteEntry(ptr noundef %43, i32 noundef %44, i32 noundef %46)
  br label %47

47:                                               ; preds = %38
  %48 = load i32, ptr %6, align 4, !tbaa !8
  %49 = add nsw i32 %48, 2
  store i32 %49, ptr %6, align 4, !tbaa !8
  br label %21, !llvm.loop !70

50:                                               ; preds = %36
  %51 = load ptr, ptr %5, align 8, !tbaa !35
  %52 = call i32 @Vec_IntSize(ptr noundef %51)
  %53 = and i32 %52, 1
  %54 = icmp ne i32 %53, 0
  br i1 %54, label %55, label %61

55:                                               ; preds = %50
  %56 = load ptr, ptr %5, align 8, !tbaa !35
  %57 = load i32, ptr %7, align 4, !tbaa !8
  %58 = add nsw i32 %57, 1
  store i32 %58, ptr %7, align 4, !tbaa !8
  %59 = load ptr, ptr %5, align 8, !tbaa !35
  %60 = call i32 @Vec_IntEntryLast(ptr noundef %59)
  call void @Vec_IntWriteEntry(ptr noundef %56, i32 noundef %57, i32 noundef %60)
  br label %61

61:                                               ; preds = %55, %50
  %62 = load ptr, ptr %5, align 8, !tbaa !35
  %63 = load i32, ptr %7, align 4, !tbaa !8
  call void @Vec_IntShrink(ptr noundef %62, i32 noundef %63)
  call void @llvm.lifetime.end.p0(i64 4, ptr %10) #12
  call void @llvm.lifetime.end.p0(i64 4, ptr %9) #12
  call void @llvm.lifetime.end.p0(i64 4, ptr %8) #12
  call void @llvm.lifetime.end.p0(i64 4, ptr %7) #12
  call void @llvm.lifetime.end.p0(i64 4, ptr %6) #12
  br label %16, !llvm.loop !71

64:                                               ; preds = %16
  %65 = load ptr, ptr %5, align 8, !tbaa !35
  %66 = call i32 @Vec_IntEntry(ptr noundef %65, i32 noundef 0)
  store i32 %66, ptr %3, align 4
  br label %67

67:                                               ; preds = %64, %14
  %68 = load i32, ptr %3, align 4
  ret i32 %68
}